target datalayout = "e-m:e-p270:32:32-p271:32:32-p272:64:64-i64:64-i128:128-f80:128-n8:16:32:64-S128"
target triple = "x86_64-pc-linux-gnu"

%struct._GHashTableIter = type { ptr, ptr, ptr, i32, i32, ptr }

@recent_cfilter_list = internal global ptr null, align 8
@per_interface_cfilter_lists_hash = internal global ptr null, align 8
@.str.1 = private unnamed_addr constant [14 x i8] c"recent_common\00", align 1
@.str.46 = private unnamed_addr constant [7 x i8] c"recent\00", align 1
@.str.134 = private unnamed_addr constant [2 x i8] c"r\00", align 1

; Function Attrs: null_pointer_is_valid sspstrong uwtable
define internal void @cfilter_recent_reverse_all() #0 {
  %1 = alloca %struct._GHashTableIter, align 8
  %2 = alloca ptr, align 8
  %3 = alloca ptr, align 8
  %4 = alloca ptr, align 8
  %5 = load ptr, ptr @recent_cfilter_list, align 8
  %6 = call ptr @g_list_reverse(ptr noundef %5)
  store ptr %6, ptr @recent_cfilter_list, align 8
  %7 = load ptr, ptr @per_interface_cfilter_lists_hash, align 8
  %8 = icmp ne ptr %7, null
  br i1 %8, label %9, label %20

9:                                                ; preds = %0
  call void @llvm.lifetime.start.p0(i64 40, ptr %1) #13
  call void @llvm.lifetime.start.p0(i64 8, ptr %2) #13
  call void @llvm.lifetime.start.p0(i64 8, ptr %3) #13
  %10 = load ptr, ptr @per_interface_cfilter_lists_hash, align 8
  call void @g_hash_table_iter_init(ptr noundef %1, ptr noundef %10)
  call void @llvm.lifetime.start.p0(i64 8, ptr %4) #13
  br label %11

11:                                               ; preds = %14, %9
  %12 = call i32 @g_hash_table_iter_next(ptr noundef %1, ptr noundef %2, ptr noundef %3)
  %13 = icmp ne i32 %12, 0
  br i1 %13, label %14, label %19

14:                                               ; preds = %11
  %15 = load ptr, ptr %3, align 8
  store ptr %15, ptr %4, align 8
  %16 = load ptr, ptr %4, align 8
  %17 = call ptr @g_list_reverse(ptr noundef %16)
  store ptr %17, ptr %4, align 8
  %18 = load ptr, ptr %4, align 8
  call void @g_hash_table_iter_replace(ptr noundef %1, ptr noundef %18)
  br label %11, !llvm.loop !15

19:                                               ; preds = %11
  call void @llvm.lifetime.end.p0(i64 8, ptr %4) #13
  call void @llvm.lifetime.end.p0(i64 8, ptr %3) #13
  call void @llvm.lifetime.end.p0(i64 8, ptr %2) #13
  call void @llvm.lifetime.end.p0(i64 40, ptr %1) #13
  br label %20

20:                                               ; preds = %19, %0
  ret void
}

; Function Attrs: null_pointer_is_valid sspstrong uwtable
define hidden zeroext i1 @recent_read_dynamic(ptr noundef %0, ptr noundef %1) #0 {
  %3 = alloca i1, align 1
  %4 = alloca ptr, align 8
  %5 = alloca ptr, align 8
  %6 = alloca ptr, align 8
  %7 = alloca ptr, align 8
  %8 = alloca i32, align 4
  store ptr %0, ptr %4, align 8
  store ptr %1, ptr %5, align 8
  call void @llvm.lifetime.start.p0(i64 8, ptr %6) #13
  call void @llvm.lifetime.start.p0(i64 8, ptr %7) #13
  %9 = call ptr @get_persconffile_path(ptr noundef @.str.1, i1 noundef zeroext false)
  store ptr %9, ptr %6, align 8
  %10 = load ptr, ptr %6, align 8
  %11 = call zeroext i1 @file_exists(ptr noundef %10)
  br i1 %11, label %15, label %12

12:                                               ; preds = %2
  %13 = load ptr, ptr %6, align 8
  call void @g_free(ptr noundef %13)
  %14 = call ptr @get_persconffile_path(ptr noundef @.str.46, i1 noundef zeroext false)
  store ptr %14, ptr %6, align 8
  br label %15

15:                                               ; preds = %12, %2
  %16 = load ptr, ptr %4, align 8
  store ptr null, ptr %16, align 8
  %17 = load ptr, ptr %6, align 8
  %18 = call noalias ptr @fopen(ptr noundef %17, ptr noundef @.str.134)
  store ptr %18, ptr %7, align 8
  %19 = icmp ne ptr %18, null
  br i1 %19, label %20, label %26

20:                                               ; preds = %15
  %21 = load ptr, ptr %6, align 8
  %22 = load ptr, ptr %7, align 8
  %23 = call i32 @read_prefs_file(ptr noundef %21, ptr noundef %22, ptr noundef @read_set_recent_pair_dynamic, ptr noundef null)
  call void @cfilter_recent_reverse_all()
  %24 = load ptr, ptr %7, align 8
  %25 = call i32 @fclose(ptr noundef %24)
  br label %37

26:                                               ; preds = %15
  %27 = call ptr @__errno_location() #17
  %28 = load i32, ptr %27, align 4
  %29 = icmp ne i32 %28, 2
  br i1 %29, label %30, label %36

30:                                               ; preds = %26
  %31 = call ptr @__errno_location() #17
  %32 = load i32, ptr %31, align 4
  %33 = load ptr, ptr %5, align 8
  store i32 %32, ptr %33, align 4
  %34 = load ptr, ptr %6, align 8
  %35 = load ptr, ptr %4, align 8
  store ptr %34, ptr %35, align 8
  store i1 false, ptr %3, align 1
  store i32 1, ptr %8, align 4
  br label %39

36:                                               ; preds = %26
  br label %37

37:                                               ; preds = %36, %20
  %38 = load ptr, ptr %6, align 8
  call void @g_free(ptr noundef %38)
  store i1 true, ptr %3, align 1
  store i32 1, ptr %8, align 4
  br label %39

39:                                               ; preds = %37, %30
  call void @llvm.lifetime.end.p0(i64 8, ptr %7) #13
  call void @llvm.lifetime.end.p0(i64 8, ptr %6) #13
  %40 = load i1, ptr %3, align 1
  ret i1 %40
}