; Function Attrs: null_pointer_is_valid sspstrong uwtable
define hidden noundef zeroext i1 @recent_read_dynamic(ptr noundef writeonly captures(none) initializes((0, 8)) %0, ptr noundef writeonly captures(none) %1) local_unnamed_addr #0 {
  %3 = alloca %struct._GHashTableIter, align 8
  %4 = alloca ptr, align 8
  %5 = alloca ptr, align 8
  %6 = tail call ptr @get_persconffile_path(ptr noundef nonnull @.str.1, i1 noundef zeroext false)
  %7 = tail call zeroext i1 @file_exists(ptr noundef %6)
  br i1 %7, label %10, label %8

8:                                                ; preds = %2
  tail call void @g_free(ptr noundef %6)
  %9 = tail call ptr @get_persconffile_path(ptr noundef nonnull @.str.46, i1 noundef zeroext false)
  br label %10

10:                                               ; preds = %8, %2
  %.012 = phi ptr [ %6, %2 ], [ %9, %8 ]
  store ptr null, ptr %0, align 8
  %11 = tail call noalias ptr @fopen(ptr noundef %.012, ptr noundef nonnull @.str.134)
  %.not = icmp eq ptr %11, null
  br i1 %.not, label %23, label %12

12:                                               ; preds = %10
  %13 = tail call i32 @read_prefs_file(ptr noundef %.012, ptr noundef nonnull %11, ptr noundef nonnull @read_set_recent_pair_dynamic, ptr noundef null)
  %14 = load ptr, ptr @recent_cfilter_list, align 8
  %15 = tail call ptr @g_list_reverse(ptr noundef %14)
  store ptr %15, ptr @recent_cfilter_list, align 8
  %16 = load ptr, ptr @per_interface_cfilter_lists_hash, align 8
  %.not.i = icmp eq ptr %16, null
  br i1 %.not.i, label %cfilter_recent_reverse_all.exit, label %17

17:                                               ; preds = %12
  call void @llvm.lifetime.start.p0(i64 40, ptr nonnull %3) #14
  call void @llvm.lifetime.start.p0(i64 8, ptr nonnull %4) #14
  call void @llvm.lifetime.start.p0(i64 8, ptr nonnull %5) #14
  call void @g_hash_table_iter_init(ptr noundef nonnull %3, ptr noundef nonnull %16)
  %18 = call i32 @g_hash_table_iter_next(ptr noundef nonnull %3, ptr noundef nonnull %4, ptr noundef nonnull %5)
  %.not23.i = icmp eq i32 %18, 0
  br i1 %.not23.i, label %._crit_edge.i, label %.lr.ph.i

.lr.ph.i:                                         ; preds = %17, %.lr.ph.i
  %19 = load ptr, ptr %5, align 8
  %20 = call ptr @g_list_reverse(ptr noundef %19)
  call void @g_hash_table_iter_replace(ptr noundef nonnull %3, ptr noundef %20)
  %21 = call i32 @g_hash_table_iter_next(ptr noundef nonnull %3, ptr noundef nonnull %4, ptr noundef nonnull %5)
  %.not2.i = icmp eq i32 %21, 0
  br i1 %.not2.i, label %._crit_edge.i, label %.lr.ph.i, !llvm.loop !16

._crit_edge.i:                                    ; preds = %.lr.ph.i, %17
  call void @llvm.lifetime.end.p0(i64 8, ptr nonnull %5) #14
  call void @llvm.lifetime.end.p0(i64 8, ptr nonnull %4) #14
  call void @llvm.lifetime.end.p0(i64 40, ptr nonnull %3) #14
  br label %cfilter_recent_reverse_all.exit

cfilter_recent_reverse_all.exit:                  ; preds = %12, %._crit_edge.i
  %22 = call i32 @fclose(ptr noundef nonnull %11)
  br label %27

23:                                               ; preds = %10
  %24 = tail call ptr @__errno_location() #15
  %25 = load i32, ptr %24, align 4
  %.not15 = icmp eq i32 %25, 2
  br i1 %.not15, label %27, label %26

26:                                               ; preds = %23
  store i32 %25, ptr %1, align 4
  store ptr %.012, ptr %0, align 8
  br label %28

27:                                               ; preds = %23, %cfilter_recent_reverse_all.exit
  call void @g_free(ptr noundef %.012)
  br label %28

28:                                               ; preds = %27, %26
  %.0 = phi i1 [ true, %27 ], [ false, %26 ]
  ret i1 %.0
}